; Function Attrs: inlinehint mustprogress optsize uwtable
define internal noundef ptr @"_ZZN8nanobind6detail11func_createILb0ELb1EZL30nanobind_init_test_ndarray_extRNS_7module_EE4$_74NS_7ndarrayIJfNS0_5shapeIJLl2ELl4EEEENS_5numpyENS_8f_contigEEEEJETpTnmJEJNS_5scopeENS_4nameEEEEP7_objectOT1_PFT2_DpT3_ESt16integer_sequenceImJXspT4_EEEDpRKT5_ENUlPvPSE_PhNS_9rv_policyEPNS0_12cleanup_listEE_8__invokeESS_ST_SU_SV_SX_"(ptr readnone captures(none) %0, ptr readnone captures(none) %1, ptr readnone captures(none) %2, i32 noundef %3, ptr noundef %4) #10 align 2 personality ptr @__gxx_personality_v0 {
  %6 = alloca %"class.std::initializer_list.441", align 8
  %7 = alloca %"class.nanobind::ndarray.652", align 8
  call void @llvm.lifetime.start.p0(i64 56, ptr nonnull %7) #22
  call void @llvm.lifetime.start.p0(i64 16, ptr nonnull %6)
  call void @llvm.memset.p0.i64(ptr noundef nonnull align 8 dereferenceable(16) %6, i8 0, i64 16, i1 false), !noalias !320
  call void @_ZN8nanobind7ndarrayIJfNS_6detail5shapeIJLl2ELl4EEEENS_5numpyENS_8f_contigEEEC2EPvSt16initializer_listImENS_6handleES8_IlENS_6dlpack5dtypeEiic(ptr noundef nonnull align 8 dereferenceable(56) %7, ptr noundef nonnull @_ZL8f_global, ptr null, i64 0, ptr null, ptr noundef nonnull byval(%"class.std::initializer_list.441") align 8 %6, i32 73730, i32 noundef 0, i32 noundef 0, i8 noundef signext 70) #21
  call void @llvm.lifetime.end.p0(i64 16, ptr nonnull %6)
  %8 = load ptr, ptr %7, align 8, !tbaa !323
  %9 = call noundef ptr @_ZN8nanobind6detail14ndarray_exportEPNS0_14ndarray_handleEiNS_9rv_policyEPNS0_12cleanup_listE(ptr noundef %8, i32 noundef 1, i32 noundef %3, ptr noundef %4) #23
  %10 = load ptr, ptr %7, align 8, !tbaa !323
  call void @_ZN8nanobind6detail15ndarray_dec_refEPNS0_14ndarray_handleE(ptr noundef %10) #23
  call void @llvm.lifetime.end.p0(i64 56, ptr nonnull %7) #22
  ret ptr %9
}